target datalayout = "e-m:e-p270:32:32-p271:32:32-p272:64:64-i64:64-i128:128-f80:128-n8:16:32:64-S128"
target triple = "x86_64-pc-linux-gnu"

%struct.Vec_Int_t_ = type { i32, i32, ptr }
%struct.Cnf_Dat_t_ = type { ptr, i32, i32, i32, ptr, ptr, ptr, ptr, ptr, ptr }

@.str = private unnamed_addr constant [9 x i8] c"%02d.cnf\00", align 1
@stdout = external global ptr, align 8
@.str.35 = private unnamed_addr constant [40 x i8] c"satelite --verbosity=0 -pre temp.cnf %s\00", align 1
@.str.36 = private unnamed_addr constant [9 x i8] c"temp.cnf\00", align 1
@.str.37 = private unnamed_addr constant [54 x i8] c"Command \22%s\22 did not succeed. Preprocessing skipped.\0A\00", align 1

; Function Attrs: inlinehint nounwind uwtable
define internal void @Vec_IntFree(ptr noundef %0) #4 {
  %2 = alloca ptr, align 8
  store ptr %0, ptr %2, align 8, !tbaa !7
  %3 = load ptr, ptr %2, align 8, !tbaa !7
  %4 = getelementptr inbounds nuw %struct.Vec_Int_t_, ptr %3, i32 0, i32 2
  %5 = load ptr, ptr %4, align 8, !tbaa !40
  %6 = icmp ne ptr %5, null
  br i1 %6, label %7, label %13

7:                                                ; preds = %1
  %8 = load ptr, ptr %2, align 8, !tbaa !7
  %9 = getelementptr inbounds nuw %struct.Vec_Int_t_, ptr %8, i32 0, i32 2
  %10 = load ptr, ptr %9, align 8, !tbaa !40
  call void @free(ptr noundef %10) #12
  %11 = load ptr, ptr %2, align 8, !tbaa !7
  %12 = getelementptr inbounds nuw %struct.Vec_Int_t_, ptr %11, i32 0, i32 2
  store ptr null, ptr %12, align 8, !tbaa !40
  br label %14

13:                                               ; preds = %1
  br label %14

14:                                               ; preds = %13, %7
  %15 = load ptr, ptr %2, align 8, !tbaa !7
  %16 = icmp ne ptr %15, null
  br i1 %16, label %17, label %19

17:                                               ; preds = %14
  %18 = load ptr, ptr %2, align 8, !tbaa !7
  call void @free(ptr noundef %18) #12
  store ptr null, ptr %2, align 8, !tbaa !7
  br label %20

19:                                               ; preds = %14
  br label %20

20:                                               ; preds = %19, %17
  ret void
}

; Function Attrs: nounwind uwtable
define void @Cnf_SplitCnfFile(ptr noundef %0, i32 noundef %1, i32 noundef %2, i32 noundef %3, i32 noundef %4, i32 noundef %5, i32 noundef %6, i32 noundef %7, i32 noundef %8) #0 {
  %10 = alloca ptr, align 8
  %11 = alloca i32, align 4
  %12 = alloca i32, align 4
  %13 = alloca i32, align 4
  %14 = alloca i32, align 4
  %15 = alloca i32, align 4
  %16 = alloca i32, align 4
  %17 = alloca i32, align 4
  %18 = alloca i32, align 4
  %19 = alloca ptr, align 8
  %20 = alloca i32, align 4
  %21 = alloca ptr, align 8
  %22 = alloca ptr, align 8
  %23 = alloca [100 x i8], align 16
  %24 = alloca [1000 x i8], align 16
  store ptr %0, ptr %10, align 8, !tbaa !12
  store i32 %1, ptr %11, align 4, !tbaa !3
  store i32 %2, ptr %12, align 4, !tbaa !3
  store i32 %3, ptr %13, align 4, !tbaa !3
  store i32 %4, ptr %14, align 4, !tbaa !3
  store i32 %5, ptr %15, align 4, !tbaa !3
  store i32 %6, ptr %16, align 4, !tbaa !3
  store i32 %7, ptr %17, align 4, !tbaa !3
  store i32 %8, ptr %18, align 4, !tbaa !3
  call void @llvm.lifetime.start.p0(i64 8, ptr %19) #12
  %25 = load ptr, ptr %10, align 8, !tbaa !12
  %26 = call ptr @Cnf_DataReadFromFile(ptr noundef %25)
  store ptr %26, ptr %19, align 8, !tbaa !87
  call void @llvm.lifetime.start.p0(i64 4, ptr %20) #12
  %27 = load i32, ptr %13, align 4, !tbaa !3
  %28 = icmp eq i32 %27, 1000000000
  br i1 %28, label %29, label %33

29:                                               ; preds = %9
  %30 = load ptr, ptr %19, align 8, !tbaa !87
  %31 = getelementptr inbounds nuw %struct.Cnf_Dat_t_, ptr %30, i32 0, i32 1
  %32 = load i32, ptr %31, align 8, !tbaa !112
  store i32 %32, ptr %13, align 4, !tbaa !3
  br label %33

33:                                               ; preds = %29, %9
  store i32 0, ptr %20, align 4, !tbaa !3
  br label %34

34:                                               ; preds = %76, %33
  %35 = load i32, ptr %20, align 4, !tbaa !3
  %36 = load i32, ptr %11, align 4, !tbaa !3
  %37 = icmp slt i32 %35, %36
  br i1 %37, label %38, label %79

38:                                               ; preds = %34
  call void @llvm.lifetime.start.p0(i64 8, ptr %21) #12
  %39 = load i32, ptr %12, align 4, !tbaa !3
  %40 = load i32, ptr %13, align 4, !tbaa !3
  %41 = load i32, ptr %14, align 4, !tbaa !3
  %42 = load i32, ptr %15, align 4, !tbaa !3
  %43 = load i32, ptr %16, align 4, !tbaa !3
  %44 = load i32, ptr %18, align 4, !tbaa !3
  %45 = call ptr @Cnf_GenRandLits(i32 noundef %39, i32 noundef %40, i32 noundef %41, i32 noundef %42, i32 noundef %43, i32 noundef %44)
  store ptr %45, ptr %21, align 8, !tbaa !7
  call void @llvm.lifetime.start.p0(i64 8, ptr %22) #12
  %46 = load ptr, ptr %19, align 8, !tbaa !87
  %47 = load ptr, ptr %21, align 8, !tbaa !7
  %48 = call ptr @Cnf_DataDupCofArray(ptr noundef %46, ptr noundef %47)
  store ptr %48, ptr %22, align 8, !tbaa !87
  call void @llvm.lifetime.start.p0(i64 100, ptr %23) #12
  %49 = getelementptr inbounds [100 x i8], ptr %23, i64 0, i64 0
  %50 = load i32, ptr %20, align 4, !tbaa !3
  %51 = call i32 (ptr, ptr, ...) @sprintf(ptr noundef %49, ptr noundef @.str, i32 noundef %50) #12
  %52 = load i32, ptr %17, align 4, !tbaa !3
  %53 = icmp ne i32 %52, 0
  br i1 %53, label %54, label %70

54:                                               ; preds = %38
  call void @llvm.lifetime.start.p0(i64 1000, ptr %24) #12
  %55 = getelementptr inbounds [1000 x i8], ptr %24, i64 0, i64 0
  %56 = getelementptr inbounds [100 x i8], ptr %23, i64 0, i64 0
  %57 = call i32 (ptr, ptr, ...) @sprintf(ptr noundef %55, ptr noundef @.str.35, ptr noundef %56) #12
  %58 = load ptr, ptr %22, align 8, !tbaa !87
  call void @Cnf_DataWriteIntoFile(ptr noundef %58, ptr noundef @.str.36, i32 noundef 0, ptr noundef null, ptr noundef null)
  %59 = getelementptr inbounds [1000 x i8], ptr %24, i64 0, i64 0
  %60 = call i32 @system(ptr noundef %59)
  %61 = icmp eq i32 %60, -1
  br i1 %61, label %62, label %68

62:                                               ; preds = %54
  %63 = load ptr, ptr @stdout, align 8, !tbaa !14
  %64 = getelementptr inbounds [1000 x i8], ptr %24, i64 0, i64 0
  %65 = call i32 (ptr, ptr, ...) @fprintf(ptr noundef %63, ptr noundef @.str.37, ptr noundef %64) #12
  %66 = load ptr, ptr %22, align 8, !tbaa !87
  %67 = getelementptr inbounds [100 x i8], ptr %23, i64 0, i64 0
  call void @Cnf_DataWriteIntoFile(ptr noundef %66, ptr noundef %67, i32 noundef 0, ptr noundef null, ptr noundef null)
  br label %68

68:                                               ; preds = %62, %54
  %69 = call i32 @unlink(ptr noundef @.str.36) #12
  call void @llvm.lifetime.end.p0(i64 1000, ptr %24) #12
  br label %73

70:                                               ; preds = %38
  %71 = load ptr, ptr %22, align 8, !tbaa !87
  %72 = getelementptr inbounds [100 x i8], ptr %23, i64 0, i64 0
  call void @Cnf_DataWriteIntoFile(ptr noundef %71, ptr noundef %72, i32 noundef 0, ptr noundef null, ptr noundef null)
  br label %73

73:                                               ; preds = %70, %68
  %74 = load ptr, ptr %22, align 8, !tbaa !87
  call void @Cnf_DataFree(ptr noundef %74)
  %75 = load ptr, ptr %21, align 8, !tbaa !7
  call void @Vec_IntFree(ptr noundef %75)
  call void @llvm.lifetime.end.p0(i64 100, ptr %23) #12
  call void @llvm.lifetime.end.p0(i64 8, ptr %22) #12
  call void @llvm.lifetime.end.p0(i64 8, ptr %21) #12
  br label %76

76:                                               ; preds = %73
  %77 = load i32, ptr %20, align 4, !tbaa !3
  %78 = add nsw i32 %77, 1
  store i32 %78, ptr %20, align 4, !tbaa !3
  br label %34, !llvm.loop !141

79:                                               ; preds = %34
  %80 = load ptr, ptr %19, align 8, !tbaa !87
  call void @Cnf_DataFree(ptr noundef %80)
  call void @llvm.lifetime.end.p0(i64 4, ptr %20) #12
  call void @llvm.lifetime.end.p0(i64 8, ptr %19) #12
  ret void
}