; Function Attrs: nounwind uwtable
define void @Cnf_SplitCnfFile(ptr noundef %0, i32 noundef %1, i32 noundef %2, i32 noundef %3, i32 noundef %4, i32 noundef %5, i32 noundef %6, i32 noundef %7, i32 noundef %8) local_unnamed_addr #0 {
  %10 = alloca [100 x i8], align 16
  %11 = alloca [1000 x i8], align 16
  %12 = tail call ptr @Cnf_DataReadFromFile(ptr noundef %0)
  %13 = icmp eq i32 %3, 1000000000
  br i1 %13, label %14, label %17

14:                                               ; preds = %9
  %15 = getelementptr inbounds nuw i8, ptr %12, i64 8
  %16 = load i32, ptr %15, align 8, !tbaa !95
  br label %17

17:                                               ; preds = %14, %9
  %.0 = phi i32 [ %16, %14 ], [ %3, %9 ]
  %18 = icmp sgt i32 %1, 0
  br i1 %18, label %.lr.ph, label %._crit_edge

.lr.ph:                                           ; preds = %17
  %.not = icmp eq i32 %7, 0
  br i1 %.not, label %.lr.ph.split.us, label %.lr.ph.split

.lr.ph.split.us:                                  ; preds = %.lr.ph, %Vec_IntFree.exit.us
  %.02123.us = phi i32 [ %25, %Vec_IntFree.exit.us ], [ 0, %.lr.ph ]
  %19 = call ptr @Cnf_GenRandLits(i32 noundef %2, i32 noundef %.0, i32 noundef %4, i32 noundef %5, i32 noundef %6, i32 noundef %8)
  %20 = call ptr @Cnf_DataDupCofArray(ptr noundef %12, ptr noundef %19) #22
  call void @llvm.lifetime.start.p0(i64 100, ptr nonnull %10) #22
  %21 = call i32 (ptr, ptr, ...) @sprintf(ptr noundef nonnull dereferenceable(1) %10, ptr noundef nonnull dereferenceable(1) @.str, i32 noundef %.02123.us) #22
  call void @Cnf_DataWriteIntoFile(ptr noundef %20, ptr noundef nonnull %10, i32 noundef 0, ptr noundef null, ptr noundef null) #22
  call void @Cnf_DataFree(ptr noundef %20) #22
  %22 = getelementptr inbounds nuw i8, ptr %19, i64 8
  %23 = load ptr, ptr %22, align 8, !tbaa !29
  %.not.i.us = icmp eq ptr %23, null
  br i1 %.not.i.us, label %Vec_IntFree.exit.us, label %24

24:                                               ; preds = %.lr.ph.split.us
  call void @free(ptr noundef nonnull %23) #22
  br label %Vec_IntFree.exit.us

Vec_IntFree.exit.us:                              ; preds = %24, %.lr.ph.split.us
  call void @free(ptr noundef nonnull %19) #22
  call void @llvm.lifetime.end.p0(i64 100, ptr nonnull %10) #22
  %25 = add nuw nsw i32 %.02123.us, 1
  %exitcond25.not = icmp eq i32 %25, %1
  br i1 %exitcond25.not, label %._crit_edge, label %.lr.ph.split.us, !llvm.loop !125

.lr.ph.split:                                     ; preds = %.lr.ph, %Vec_IntFree.exit
  %.02123 = phi i32 [ %40, %Vec_IntFree.exit ], [ 0, %.lr.ph ]
  %26 = call ptr @Cnf_GenRandLits(i32 noundef %2, i32 noundef %.0, i32 noundef %4, i32 noundef %5, i32 noundef %6, i32 noundef %8)
  %27 = call ptr @Cnf_DataDupCofArray(ptr noundef %12, ptr noundef %26) #22
  call void @llvm.lifetime.start.p0(i64 100, ptr nonnull %10) #22
  %28 = call i32 (ptr, ptr, ...) @sprintf(ptr noundef nonnull dereferenceable(1) %10, ptr noundef nonnull dereferenceable(1) @.str, i32 noundef %.02123) #22
  call void @llvm.lifetime.start.p0(i64 1000, ptr nonnull %11) #22
  %29 = call i32 (ptr, ptr, ...) @sprintf(ptr noundef nonnull dereferenceable(1) %11, ptr noundef nonnull dereferenceable(1) @.str.35, ptr noundef nonnull %10) #22
  call void @Cnf_DataWriteIntoFile(ptr noundef %27, ptr noundef nonnull @.str.36, i32 noundef 0, ptr noundef null, ptr noundef null) #22
  %30 = call i32 @system(ptr noundef nonnull %11) #22
  %31 = icmp eq i32 %30, -1
  br i1 %31, label %32, label %35

32:                                               ; preds = %.lr.ph.split
  %33 = load ptr, ptr @stdout, align 8, !tbaa !9
  %34 = call i32 (ptr, ptr, ...) @fprintf(ptr noundef %33, ptr noundef nonnull @.str.37, ptr noundef nonnull %11) #22
  call void @Cnf_DataWriteIntoFile(ptr noundef %27, ptr noundef nonnull %10, i32 noundef 0, ptr noundef null, ptr noundef null) #22
  br label %35

35:                                               ; preds = %32, %.lr.ph.split
  %36 = call i32 @unlink(ptr noundef nonnull @.str.36) #22
  call void @llvm.lifetime.end.p0(i64 1000, ptr nonnull %11) #22
  call void @Cnf_DataFree(ptr noundef %27) #22
  %37 = getelementptr inbounds nuw i8, ptr %26, i64 8
  %38 = load ptr, ptr %37, align 8, !tbaa !29
  %.not.i = icmp eq ptr %38, null
  br i1 %.not.i, label %Vec_IntFree.exit, label %39

39:                                               ; preds = %35
  call void @free(ptr noundef nonnull %38) #22
  br label %Vec_IntFree.exit

Vec_IntFree.exit:                                 ; preds = %35, %39
  call void @free(ptr noundef nonnull %26) #22
  call void @llvm.lifetime.end.p0(i64 100, ptr nonnull %10) #22
  %40 = add nuw nsw i32 %.02123, 1
  %exitcond.not = icmp eq i32 %40, %1
  br i1 %exitcond.not, label %._crit_edge, label %.lr.ph.split, !llvm.loop !125

._crit_edge:                                      ; preds = %Vec_IntFree.exit, %Vec_IntFree.exit.us, %17
  call void @Cnf_DataFree(ptr noundef %12) #22
  ret void
}